; Function Attrs: mustprogress nounwind uwtable
define internal fastcc void @_ZSt22__stable_sort_adaptiveIN9__gnu_cxx17__normal_iteratorIPSt4pairIPN4llvm11TreePatternEjESt6vectorIS6_SaIS6_EEEES7_lNS0_5__ops15_Iter_comp_iterIZN12_GLOBAL__N_119MatcherTableEmitterC1EPKNS3_7MatcherERKNS3_18CodeGenDAGPatternsEEUlRKT_RKT0_E1_EEEvSM_SM_SP_T1_T2_(ptr %0, ptr %1, ptr noundef %2, i64 noundef %3) unnamed_addr #0 {
  %5 = ptrtoint ptr %1 to i64
  %6 = ptrtoint ptr %0 to i64
  %7 = sub i64 %5, %6
  %8 = ashr exact i64 %7, 4
  %9 = add nsw i64 %8, 1
  %10 = sdiv i64 %9, 2
  %11 = getelementptr inbounds %"struct.std::pair.167", ptr %0, i64 %10
  %12 = icmp sgt i64 %10, %3
  br i1 %12, label %13, label %14

13:                                               ; preds = %4
  tail call fastcc void @_ZSt22__stable_sort_adaptiveIN9__gnu_cxx17__normal_iteratorIPSt4pairIPN4llvm11TreePatternEjESt6vectorIS6_SaIS6_EEEES7_lNS0_5__ops15_Iter_comp_iterIZN12_GLOBAL__N_119MatcherTableEmitterC1EPKNS3_7MatcherERKNS3_18CodeGenDAGPatternsEEUlRKT_RKT0_E1_EEEvSM_SM_SP_T1_T2_(ptr %0, ptr %11, ptr noundef %2, i64 noundef %3)
  tail call fastcc void @_ZSt22__stable_sort_adaptiveIN9__gnu_cxx17__normal_iteratorIPSt4pairIPN4llvm11TreePatternEjESt6vectorIS6_SaIS6_EEEES7_lNS0_5__ops15_Iter_comp_iterIZN12_GLOBAL__N_119MatcherTableEmitterC1EPKNS3_7MatcherERKNS3_18CodeGenDAGPatternsEEUlRKT_RKT0_E1_EEEvSM_SM_SP_T1_T2_(ptr %11, ptr %1, ptr noundef %2, i64 noundef %3)
  br label %15

14:                                               ; preds = %4
  tail call fastcc void @_ZSt24__merge_sort_with_bufferIN9__gnu_cxx17__normal_iteratorIPSt4pairIPN4llvm11TreePatternEjESt6vectorIS6_SaIS6_EEEES7_NS0_5__ops15_Iter_comp_iterIZN12_GLOBAL__N_119MatcherTableEmitterC1EPKNS3_7MatcherERKNS3_18CodeGenDAGPatternsEEUlRKT_RKT0_E1_EEEvSM_SM_SP_T1_(ptr %0, ptr %11, ptr noundef %2)
  tail call fastcc void @_ZSt24__merge_sort_with_bufferIN9__gnu_cxx17__normal_iteratorIPSt4pairIPN4llvm11TreePatternEjESt6vectorIS6_SaIS6_EEEES7_NS0_5__ops15_Iter_comp_iterIZN12_GLOBAL__N_119MatcherTableEmitterC1EPKNS3_7MatcherERKNS3_18CodeGenDAGPatternsEEUlRKT_RKT0_E1_EEEvSM_SM_SP_T1_(ptr %11, ptr %1, ptr noundef %2)
  br label %15

15:                                               ; preds = %14, %13
  %16 = ptrtoint ptr %11 to i64
  %17 = sub i64 %5, %16
  %18 = ashr exact i64 %17, 4
  tail call fastcc void @_ZSt16__merge_adaptiveIN9__gnu_cxx17__normal_iteratorIPSt4pairIPN4llvm11TreePatternEjESt6vectorIS6_SaIS6_EEEElS7_NS0_5__ops15_Iter_comp_iterIZN12_GLOBAL__N_119MatcherTableEmitterC1EPKNS3_7MatcherERKNS3_18CodeGenDAGPatternsEEUlRKT_RKT0_E1_EEEvSM_SM_SM_SP_SP_T1_SP_T2_(ptr %0, ptr %11, ptr %1, i64 noundef %10, i64 noundef %18, ptr noundef %2, i64 noundef %3)
  ret void
}